ARM GAS  /tmp/cc7eMp39.s 			page 1


   1              		.cpu cortex-m0
   2              		.eabi_attribute 20, 1
   3              		.eabi_attribute 21, 1
   4              		.eabi_attribute 23, 3
   5              		.eabi_attribute 24, 1
   6              		.eabi_attribute 25, 1
   7              		.eabi_attribute 26, 1
   8              		.eabi_attribute 30, 1
   9              		.eabi_attribute 34, 0
  10              		.eabi_attribute 18, 4
  11              		.file	"diskio.c"
  12              		.text
  13              	.Ltext0:
  14              		.cfi_sections	.debug_frame
  15              		.section	.text.disk_status,"ax",%progbits
  16              		.align	1
  17              		.global	disk_status
  18              		.arch armv6s-m
  19              		.syntax unified
  20              		.code	16
  21              		.thumb_func
  22              		.fpu softvfp
  24              	disk_status:
  25              	.LVL0:
  26              	.LFB40:
  27              		.file 1 "Middlewares/Third_Party/FatFs/src/diskio.c"
   1:Middlewares/Third_Party/FatFs/src/diskio.c **** /*-----------------------------------------------------------------------*/
   2:Middlewares/Third_Party/FatFs/src/diskio.c **** /* Low level disk I/O module skeleton for FatFs     (C)ChaN, 2014        */
   3:Middlewares/Third_Party/FatFs/src/diskio.c **** /*                                                                       */
   4:Middlewares/Third_Party/FatFs/src/diskio.c **** /*   Portions COPYRIGHT 2015 STMicroelectronics                          */
   5:Middlewares/Third_Party/FatFs/src/diskio.c **** /*   Portions Copyright (C) 2014, ChaN, all right reserved               */
   6:Middlewares/Third_Party/FatFs/src/diskio.c **** /*-----------------------------------------------------------------------*/
   7:Middlewares/Third_Party/FatFs/src/diskio.c **** /* If a working storage control module is available, it should be        */
   8:Middlewares/Third_Party/FatFs/src/diskio.c **** /* attached to the FatFs via a glue function rather than modifying it.   */
   9:Middlewares/Third_Party/FatFs/src/diskio.c **** /* This is an example of glue functions to attach various exsisting      */
  10:Middlewares/Third_Party/FatFs/src/diskio.c **** /* storage control modules to the FatFs module with a defined API.       */
  11:Middlewares/Third_Party/FatFs/src/diskio.c **** /*-----------------------------------------------------------------------*/
  12:Middlewares/Third_Party/FatFs/src/diskio.c **** 
  13:Middlewares/Third_Party/FatFs/src/diskio.c **** /**
  14:Middlewares/Third_Party/FatFs/src/diskio.c ****   ******************************************************************************
  15:Middlewares/Third_Party/FatFs/src/diskio.c ****   * @file    diskio.c 
  16:Middlewares/Third_Party/FatFs/src/diskio.c ****   * @author  MCD Application Team
  17:Middlewares/Third_Party/FatFs/src/diskio.c ****   * @version V1.3.0
  18:Middlewares/Third_Party/FatFs/src/diskio.c ****   * @date    08-May-2015
  19:Middlewares/Third_Party/FatFs/src/diskio.c ****   * @brief   FatFs low level disk I/O module.
  20:Middlewares/Third_Party/FatFs/src/diskio.c ****   ******************************************************************************
  21:Middlewares/Third_Party/FatFs/src/diskio.c ****   * @attention
  22:Middlewares/Third_Party/FatFs/src/diskio.c ****   *
  23:Middlewares/Third_Party/FatFs/src/diskio.c ****   * Licensed under MCD-ST Liberty SW License Agreement V2, (the "License");
  24:Middlewares/Third_Party/FatFs/src/diskio.c ****   * You may not use this file except in compliance with the License.
  25:Middlewares/Third_Party/FatFs/src/diskio.c ****   * You may obtain a copy of the License at:
  26:Middlewares/Third_Party/FatFs/src/diskio.c ****   *
  27:Middlewares/Third_Party/FatFs/src/diskio.c ****   *        http://www.st.com/software_license_agreement_liberty_v2
  28:Middlewares/Third_Party/FatFs/src/diskio.c ****   *
  29:Middlewares/Third_Party/FatFs/src/diskio.c ****   * Unless required by applicable law or agreed to in writing, software 
  30:Middlewares/Third_Party/FatFs/src/diskio.c ****   * distributed under the License is distributed on an "AS IS" BASIS, 
  31:Middlewares/Third_Party/FatFs/src/diskio.c ****   * WITHOUT WARRANTIES OR CONDITIONS OF ANY KIND, either express or implied.
ARM GAS  /tmp/cc7eMp39.s 			page 2


  32:Middlewares/Third_Party/FatFs/src/diskio.c ****   * See the License for the specific language governing permissions and
  33:Middlewares/Third_Party/FatFs/src/diskio.c ****   * limitations under the License.
  34:Middlewares/Third_Party/FatFs/src/diskio.c ****   *
  35:Middlewares/Third_Party/FatFs/src/diskio.c ****   ******************************************************************************
  36:Middlewares/Third_Party/FatFs/src/diskio.c ****   */
  37:Middlewares/Third_Party/FatFs/src/diskio.c **** 
  38:Middlewares/Third_Party/FatFs/src/diskio.c **** /* Includes ------------------------------------------------------------------*/
  39:Middlewares/Third_Party/FatFs/src/diskio.c **** #include "diskio.h"
  40:Middlewares/Third_Party/FatFs/src/diskio.c **** #include "ff_gen_drv.h"
  41:Middlewares/Third_Party/FatFs/src/diskio.c **** 
  42:Middlewares/Third_Party/FatFs/src/diskio.c **** /* Private typedef -----------------------------------------------------------*/
  43:Middlewares/Third_Party/FatFs/src/diskio.c **** /* Private define ------------------------------------------------------------*/
  44:Middlewares/Third_Party/FatFs/src/diskio.c **** /* Private variables ---------------------------------------------------------*/
  45:Middlewares/Third_Party/FatFs/src/diskio.c **** extern Disk_drvTypeDef  disk;
  46:Middlewares/Third_Party/FatFs/src/diskio.c **** 
  47:Middlewares/Third_Party/FatFs/src/diskio.c **** /* Private function prototypes -----------------------------------------------*/
  48:Middlewares/Third_Party/FatFs/src/diskio.c **** /* Private functions ---------------------------------------------------------*/
  49:Middlewares/Third_Party/FatFs/src/diskio.c **** 
  50:Middlewares/Third_Party/FatFs/src/diskio.c **** /**
  51:Middlewares/Third_Party/FatFs/src/diskio.c ****   * @brief  Gets Disk Status 
  52:Middlewares/Third_Party/FatFs/src/diskio.c ****   * @param  pdrv: Physical drive number (0..)
  53:Middlewares/Third_Party/FatFs/src/diskio.c ****   * @retval DSTATUS: Operation status
  54:Middlewares/Third_Party/FatFs/src/diskio.c ****   */
  55:Middlewares/Third_Party/FatFs/src/diskio.c **** DSTATUS disk_status (
  56:Middlewares/Third_Party/FatFs/src/diskio.c **** 	BYTE pdrv		/* Physical drive nmuber to identify the drive */
  57:Middlewares/Third_Party/FatFs/src/diskio.c **** )
  58:Middlewares/Third_Party/FatFs/src/diskio.c **** {
  28              		.loc 1 58 1 view -0
  29              		.cfi_startproc
  30              		@ args = 0, pretend = 0, frame = 0
  31              		@ frame_needed = 0, uses_anonymous_args = 0
  32              		.loc 1 58 1 is_stmt 0 view .LVU1
  33 0000 10B5     		push	{r4, lr}
  34              	.LCFI0:
  35              		.cfi_def_cfa_offset 8
  36              		.cfi_offset 4, -8
  37              		.cfi_offset 14, -4
  59:Middlewares/Third_Party/FatFs/src/diskio.c ****   DSTATUS stat;
  38              		.loc 1 59 3 is_stmt 1 view .LVU2
  60:Middlewares/Third_Party/FatFs/src/diskio.c ****   
  61:Middlewares/Third_Party/FatFs/src/diskio.c ****   stat = disk.drv[pdrv]->disk_status(disk.lun[pdrv]);
  39              		.loc 1 61 3 view .LVU3
  40              		.loc 1 61 18 is_stmt 0 view .LVU4
  41 0002 044B     		ldr	r3, .L2
  42 0004 8200     		lsls	r2, r0, #2
  43 0006 9A18     		adds	r2, r3, r2
  44 0008 5268     		ldr	r2, [r2, #4]
  45              		.loc 1 61 24 view .LVU5
  46 000a 5268     		ldr	r2, [r2, #4]
  47              		.loc 1 61 10 view .LVU6
  48 000c 1B18     		adds	r3, r3, r0
  49 000e 187A     		ldrb	r0, [r3, #8]
  50              	.LVL1:
  51              		.loc 1 61 10 view .LVU7
  52 0010 9047     		blx	r2
  53              	.LVL2:
  62:Middlewares/Third_Party/FatFs/src/diskio.c ****   return stat;
ARM GAS  /tmp/cc7eMp39.s 			page 3


  54              		.loc 1 62 3 is_stmt 1 view .LVU8
  63:Middlewares/Third_Party/FatFs/src/diskio.c **** }
  55              		.loc 1 63 1 is_stmt 0 view .LVU9
  56              		@ sp needed
  57 0012 10BD     		pop	{r4, pc}
  58              	.L3:
  59              		.align	2
  60              	.L2:
  61 0014 00000000 		.word	disk
  62              		.cfi_endproc
  63              	.LFE40:
  65              		.section	.text.disk_initialize,"ax",%progbits
  66              		.align	1
  67              		.global	disk_initialize
  68              		.syntax unified
  69              		.code	16
  70              		.thumb_func
  71              		.fpu softvfp
  73              	disk_initialize:
  74              	.LVL3:
  75              	.LFB41:
  64:Middlewares/Third_Party/FatFs/src/diskio.c **** 
  65:Middlewares/Third_Party/FatFs/src/diskio.c **** /**
  66:Middlewares/Third_Party/FatFs/src/diskio.c ****   * @brief  Initializes a Drive
  67:Middlewares/Third_Party/FatFs/src/diskio.c ****   * @param  pdrv: Physical drive number (0..)
  68:Middlewares/Third_Party/FatFs/src/diskio.c ****   * @retval DSTATUS: Operation status
  69:Middlewares/Third_Party/FatFs/src/diskio.c ****   */
  70:Middlewares/Third_Party/FatFs/src/diskio.c **** DSTATUS disk_initialize (
  71:Middlewares/Third_Party/FatFs/src/diskio.c **** 	BYTE pdrv				/* Physical drive nmuber to identify the drive */
  72:Middlewares/Third_Party/FatFs/src/diskio.c **** )
  73:Middlewares/Third_Party/FatFs/src/diskio.c **** {
  76              		.loc 1 73 1 is_stmt 1 view -0
  77              		.cfi_startproc
  78              		@ args = 0, pretend = 0, frame = 0
  79              		@ frame_needed = 0, uses_anonymous_args = 0
  80              		.loc 1 73 1 is_stmt 0 view .LVU11
  81 0000 10B5     		push	{r4, lr}
  82              	.LCFI1:
  83              		.cfi_def_cfa_offset 8
  84              		.cfi_offset 4, -8
  85              		.cfi_offset 14, -4
  74:Middlewares/Third_Party/FatFs/src/diskio.c ****   DSTATUS stat = RES_OK;
  86              		.loc 1 74 3 is_stmt 1 view .LVU12
  87              	.LVL4:
  75:Middlewares/Third_Party/FatFs/src/diskio.c ****   
  76:Middlewares/Third_Party/FatFs/src/diskio.c ****   if(disk.is_initialized[pdrv] == 0)
  88              		.loc 1 76 3 view .LVU13
  89              		.loc 1 76 25 is_stmt 0 view .LVU14
  90 0002 084B     		ldr	r3, .L7
  91 0004 1B5C     		ldrb	r3, [r3, r0]
  92              		.loc 1 76 5 view .LVU15
  93 0006 002B     		cmp	r3, #0
  94 0008 0AD1     		bne	.L6
  77:Middlewares/Third_Party/FatFs/src/diskio.c ****   { 
  78:Middlewares/Third_Party/FatFs/src/diskio.c ****     disk.is_initialized[pdrv] = 1;
  95              		.loc 1 78 5 is_stmt 1 view .LVU16
  96              		.loc 1 78 31 is_stmt 0 view .LVU17
ARM GAS  /tmp/cc7eMp39.s 			page 4


  97 000a 064B     		ldr	r3, .L7
  98 000c 0122     		movs	r2, #1
  99 000e 1A54     		strb	r2, [r3, r0]
  79:Middlewares/Third_Party/FatFs/src/diskio.c ****     stat = disk.drv[pdrv]->disk_initialize(disk.lun[pdrv]);
 100              		.loc 1 79 5 is_stmt 1 view .LVU18
 101              		.loc 1 79 20 is_stmt 0 view .LVU19
 102 0010 8200     		lsls	r2, r0, #2
 103 0012 9A18     		adds	r2, r3, r2
 104 0014 5268     		ldr	r2, [r2, #4]
 105              		.loc 1 79 26 view .LVU20
 106 0016 1268     		ldr	r2, [r2]
 107              		.loc 1 79 12 view .LVU21
 108 0018 1818     		adds	r0, r3, r0
 109              	.LVL5:
 110              		.loc 1 79 12 view .LVU22
 111 001a 007A     		ldrb	r0, [r0, #8]
 112 001c 9047     		blx	r2
 113              	.LVL6:
 114              	.L5:
  80:Middlewares/Third_Party/FatFs/src/diskio.c ****   }
  81:Middlewares/Third_Party/FatFs/src/diskio.c ****   return stat;
 115              		.loc 1 81 3 is_stmt 1 view .LVU23
  82:Middlewares/Third_Party/FatFs/src/diskio.c **** }
 116              		.loc 1 82 1 is_stmt 0 view .LVU24
 117              		@ sp needed
 118 001e 10BD     		pop	{r4, pc}
 119              	.LVL7:
 120              	.L6:
  74:Middlewares/Third_Party/FatFs/src/diskio.c ****   
 121              		.loc 1 74 11 view .LVU25
 122 0020 0020     		movs	r0, #0
 123              	.LVL8:
  74:Middlewares/Third_Party/FatFs/src/diskio.c ****   
 124              		.loc 1 74 11 view .LVU26
 125 0022 FCE7     		b	.L5
 126              	.L8:
 127              		.align	2
 128              	.L7:
 129 0024 00000000 		.word	disk
 130              		.cfi_endproc
 131              	.LFE41:
 133              		.section	.text.disk_read,"ax",%progbits
 134              		.align	1
 135              		.global	disk_read
 136              		.syntax unified
 137              		.code	16
 138              		.thumb_func
 139              		.fpu softvfp
 141              	disk_read:
 142              	.LVL9:
 143              	.LFB42:
  83:Middlewares/Third_Party/FatFs/src/diskio.c **** 
  84:Middlewares/Third_Party/FatFs/src/diskio.c **** /**
  85:Middlewares/Third_Party/FatFs/src/diskio.c ****   * @brief  Reads Sector(s) 
  86:Middlewares/Third_Party/FatFs/src/diskio.c ****   * @param  pdrv: Physical drive number (0..)
  87:Middlewares/Third_Party/FatFs/src/diskio.c ****   * @param  *buff: Data buffer to store read data
  88:Middlewares/Third_Party/FatFs/src/diskio.c ****   * @param  sector: Sector address (LBA)
ARM GAS  /tmp/cc7eMp39.s 			page 5


  89:Middlewares/Third_Party/FatFs/src/diskio.c ****   * @param  count: Number of sectors to read (1..128)
  90:Middlewares/Third_Party/FatFs/src/diskio.c ****   * @retval DRESULT: Operation result
  91:Middlewares/Third_Party/FatFs/src/diskio.c ****   */
  92:Middlewares/Third_Party/FatFs/src/diskio.c **** DRESULT disk_read (
  93:Middlewares/Third_Party/FatFs/src/diskio.c **** 	BYTE pdrv,		/* Physical drive nmuber to identify the drive */
  94:Middlewares/Third_Party/FatFs/src/diskio.c **** 	BYTE *buff,		/* Data buffer to store read data */
  95:Middlewares/Third_Party/FatFs/src/diskio.c **** 	DWORD sector,	        /* Sector address in LBA */
  96:Middlewares/Third_Party/FatFs/src/diskio.c **** 	UINT count		/* Number of sectors to read */
  97:Middlewares/Third_Party/FatFs/src/diskio.c **** )
  98:Middlewares/Third_Party/FatFs/src/diskio.c **** {
 144              		.loc 1 98 1 is_stmt 1 view -0
 145              		.cfi_startproc
 146              		@ args = 0, pretend = 0, frame = 0
 147              		@ frame_needed = 0, uses_anonymous_args = 0
 148              		.loc 1 98 1 is_stmt 0 view .LVU28
 149 0000 70B5     		push	{r4, r5, r6, lr}
 150              	.LCFI2:
 151              		.cfi_def_cfa_offset 16
 152              		.cfi_offset 4, -16
 153              		.cfi_offset 5, -12
 154              		.cfi_offset 6, -8
 155              		.cfi_offset 14, -4
  99:Middlewares/Third_Party/FatFs/src/diskio.c ****   DRESULT res;
 156              		.loc 1 99 3 is_stmt 1 view .LVU29
 100:Middlewares/Third_Party/FatFs/src/diskio.c ****  
 101:Middlewares/Third_Party/FatFs/src/diskio.c ****   res = disk.drv[pdrv]->disk_read(disk.lun[pdrv], buff, sector, count);
 157              		.loc 1 101 3 view .LVU30
 158              		.loc 1 101 17 is_stmt 0 view .LVU31
 159 0002 044C     		ldr	r4, .L10
 160 0004 8500     		lsls	r5, r0, #2
 161 0006 6519     		adds	r5, r4, r5
 162 0008 6D68     		ldr	r5, [r5, #4]
 163              		.loc 1 101 23 view .LVU32
 164 000a AD68     		ldr	r5, [r5, #8]
 165              		.loc 1 101 9 view .LVU33
 166 000c 2418     		adds	r4, r4, r0
 167 000e 207A     		ldrb	r0, [r4, #8]
 168              	.LVL10:
 169              		.loc 1 101 9 view .LVU34
 170 0010 A847     		blx	r5
 171              	.LVL11:
 102:Middlewares/Third_Party/FatFs/src/diskio.c ****   return res;
 172              		.loc 1 102 3 is_stmt 1 view .LVU35
 103:Middlewares/Third_Party/FatFs/src/diskio.c **** }
 173              		.loc 1 103 1 is_stmt 0 view .LVU36
 174              		@ sp needed
 175 0012 70BD     		pop	{r4, r5, r6, pc}
 176              	.L11:
 177              		.align	2
 178              	.L10:
 179 0014 00000000 		.word	disk
 180              		.cfi_endproc
 181              	.LFE42:
 183              		.section	.text.disk_write,"ax",%progbits
 184              		.align	1
 185              		.global	disk_write
 186              		.syntax unified
ARM GAS  /tmp/cc7eMp39.s 			page 6


 187              		.code	16
 188              		.thumb_func
 189              		.fpu softvfp
 191              	disk_write:
 192              	.LVL12:
 193              	.LFB43:
 104:Middlewares/Third_Party/FatFs/src/diskio.c **** 
 105:Middlewares/Third_Party/FatFs/src/diskio.c **** /**
 106:Middlewares/Third_Party/FatFs/src/diskio.c ****   * @brief  Writes Sector(s)  
 107:Middlewares/Third_Party/FatFs/src/diskio.c ****   * @param  pdrv: Physical drive number (0..)
 108:Middlewares/Third_Party/FatFs/src/diskio.c ****   * @param  *buff: Data to be written
 109:Middlewares/Third_Party/FatFs/src/diskio.c ****   * @param  sector: Sector address (LBA)
 110:Middlewares/Third_Party/FatFs/src/diskio.c ****   * @param  count: Number of sectors to write (1..128)
 111:Middlewares/Third_Party/FatFs/src/diskio.c ****   * @retval DRESULT: Operation result
 112:Middlewares/Third_Party/FatFs/src/diskio.c ****   */
 113:Middlewares/Third_Party/FatFs/src/diskio.c **** #if _USE_WRITE == 1
 114:Middlewares/Third_Party/FatFs/src/diskio.c **** DRESULT disk_write (
 115:Middlewares/Third_Party/FatFs/src/diskio.c **** 	BYTE pdrv,		/* Physical drive nmuber to identify the drive */
 116:Middlewares/Third_Party/FatFs/src/diskio.c **** 	const BYTE *buff,	/* Data to be written */
 117:Middlewares/Third_Party/FatFs/src/diskio.c **** 	DWORD sector,		/* Sector address in LBA */
 118:Middlewares/Third_Party/FatFs/src/diskio.c **** 	UINT count        	/* Number of sectors to write */
 119:Middlewares/Third_Party/FatFs/src/diskio.c **** )
 120:Middlewares/Third_Party/FatFs/src/diskio.c **** {
 194              		.loc 1 120 1 is_stmt 1 view -0
 195              		.cfi_startproc
 196              		@ args = 0, pretend = 0, frame = 0
 197              		@ frame_needed = 0, uses_anonymous_args = 0
 198              		.loc 1 120 1 is_stmt 0 view .LVU38
 199 0000 70B5     		push	{r4, r5, r6, lr}
 200              	.LCFI3:
 201              		.cfi_def_cfa_offset 16
 202              		.cfi_offset 4, -16
 203              		.cfi_offset 5, -12
 204              		.cfi_offset 6, -8
 205              		.cfi_offset 14, -4
 121:Middlewares/Third_Party/FatFs/src/diskio.c ****   DRESULT res;
 206              		.loc 1 121 3 is_stmt 1 view .LVU39
 122:Middlewares/Third_Party/FatFs/src/diskio.c ****   
 123:Middlewares/Third_Party/FatFs/src/diskio.c ****   res = disk.drv[pdrv]->disk_write(disk.lun[pdrv], buff, sector, count);
 207              		.loc 1 123 3 view .LVU40
 208              		.loc 1 123 17 is_stmt 0 view .LVU41
 209 0002 044C     		ldr	r4, .L13
 210 0004 8500     		lsls	r5, r0, #2
 211 0006 6519     		adds	r5, r4, r5
 212 0008 6D68     		ldr	r5, [r5, #4]
 213              		.loc 1 123 23 view .LVU42
 214 000a ED68     		ldr	r5, [r5, #12]
 215              		.loc 1 123 9 view .LVU43
 216 000c 2418     		adds	r4, r4, r0
 217 000e 207A     		ldrb	r0, [r4, #8]
 218              	.LVL13:
 219              		.loc 1 123 9 view .LVU44
 220 0010 A847     		blx	r5
 221              	.LVL14:
 124:Middlewares/Third_Party/FatFs/src/diskio.c ****   return res;
 222              		.loc 1 124 3 is_stmt 1 view .LVU45
 125:Middlewares/Third_Party/FatFs/src/diskio.c **** }
ARM GAS  /tmp/cc7eMp39.s 			page 7


 223              		.loc 1 125 1 is_stmt 0 view .LVU46
 224              		@ sp needed
 225 0012 70BD     		pop	{r4, r5, r6, pc}
 226              	.L14:
 227              		.align	2
 228              	.L13:
 229 0014 00000000 		.word	disk
 230              		.cfi_endproc
 231              	.LFE43:
 233              		.section	.text.disk_ioctl,"ax",%progbits
 234              		.align	1
 235              		.global	disk_ioctl
 236              		.syntax unified
 237              		.code	16
 238              		.thumb_func
 239              		.fpu softvfp
 241              	disk_ioctl:
 242              	.LVL15:
 243              	.LFB44:
 126:Middlewares/Third_Party/FatFs/src/diskio.c **** #endif /* _USE_WRITE == 1 */
 127:Middlewares/Third_Party/FatFs/src/diskio.c **** 
 128:Middlewares/Third_Party/FatFs/src/diskio.c **** /**
 129:Middlewares/Third_Party/FatFs/src/diskio.c ****   * @brief  I/O control operation  
 130:Middlewares/Third_Party/FatFs/src/diskio.c ****   * @param  pdrv: Physical drive number (0..)
 131:Middlewares/Third_Party/FatFs/src/diskio.c ****   * @param  cmd: Control code
 132:Middlewares/Third_Party/FatFs/src/diskio.c ****   * @param  *buff: Buffer to send/receive control data
 133:Middlewares/Third_Party/FatFs/src/diskio.c ****   * @retval DRESULT: Operation result
 134:Middlewares/Third_Party/FatFs/src/diskio.c ****   */
 135:Middlewares/Third_Party/FatFs/src/diskio.c **** #if _USE_IOCTL == 1
 136:Middlewares/Third_Party/FatFs/src/diskio.c **** DRESULT disk_ioctl (
 137:Middlewares/Third_Party/FatFs/src/diskio.c **** 	BYTE pdrv,		/* Physical drive nmuber (0..) */
 138:Middlewares/Third_Party/FatFs/src/diskio.c **** 	BYTE cmd,		/* Control code */
 139:Middlewares/Third_Party/FatFs/src/diskio.c **** 	void *buff		/* Buffer to send/receive control data */
 140:Middlewares/Third_Party/FatFs/src/diskio.c **** )
 141:Middlewares/Third_Party/FatFs/src/diskio.c **** {
 244              		.loc 1 141 1 is_stmt 1 view -0
 245              		.cfi_startproc
 246              		@ args = 0, pretend = 0, frame = 0
 247              		@ frame_needed = 0, uses_anonymous_args = 0
 248              		.loc 1 141 1 is_stmt 0 view .LVU48
 249 0000 10B5     		push	{r4, lr}
 250              	.LCFI4:
 251              		.cfi_def_cfa_offset 8
 252              		.cfi_offset 4, -8
 253              		.cfi_offset 14, -4
 142:Middlewares/Third_Party/FatFs/src/diskio.c ****   DRESULT res;
 254              		.loc 1 142 3 is_stmt 1 view .LVU49
 143:Middlewares/Third_Party/FatFs/src/diskio.c **** 
 144:Middlewares/Third_Party/FatFs/src/diskio.c ****   res = disk.drv[pdrv]->disk_ioctl(disk.lun[pdrv], cmd, buff);
 255              		.loc 1 144 3 view .LVU50
 256              		.loc 1 144 17 is_stmt 0 view .LVU51
 257 0002 044B     		ldr	r3, .L16
 258 0004 8400     		lsls	r4, r0, #2
 259 0006 1C19     		adds	r4, r3, r4
 260 0008 6468     		ldr	r4, [r4, #4]
 261              		.loc 1 144 23 view .LVU52
 262 000a 2469     		ldr	r4, [r4, #16]
ARM GAS  /tmp/cc7eMp39.s 			page 8


 263              		.loc 1 144 9 view .LVU53
 264 000c 1B18     		adds	r3, r3, r0
 265 000e 187A     		ldrb	r0, [r3, #8]
 266              	.LVL16:
 267              		.loc 1 144 9 view .LVU54
 268 0010 A047     		blx	r4
 269              	.LVL17:
 145:Middlewares/Third_Party/FatFs/src/diskio.c ****   return res;
 270              		.loc 1 145 3 is_stmt 1 view .LVU55
 146:Middlewares/Third_Party/FatFs/src/diskio.c **** }
 271              		.loc 1 146 1 is_stmt 0 view .LVU56
 272              		@ sp needed
 273 0012 10BD     		pop	{r4, pc}
 274              	.L17:
 275              		.align	2
 276              	.L16:
 277 0014 00000000 		.word	disk
 278              		.cfi_endproc
 279              	.LFE44:
 281              		.section	.text.get_fattime,"ax",%progbits
 282              		.align	1
 283              		.weak	get_fattime
 284              		.syntax unified
 285              		.code	16
 286              		.thumb_func
 287              		.fpu softvfp
 289              	get_fattime:
 290              	.LFB45:
 147:Middlewares/Third_Party/FatFs/src/diskio.c **** #endif /* _USE_IOCTL == 1 */
 148:Middlewares/Third_Party/FatFs/src/diskio.c **** 
 149:Middlewares/Third_Party/FatFs/src/diskio.c **** /**
 150:Middlewares/Third_Party/FatFs/src/diskio.c ****   * @brief  Gets Time from RTC 
 151:Middlewares/Third_Party/FatFs/src/diskio.c ****   * @param  None
 152:Middlewares/Third_Party/FatFs/src/diskio.c ****   * @retval Time in DWORD
 153:Middlewares/Third_Party/FatFs/src/diskio.c ****   */
 154:Middlewares/Third_Party/FatFs/src/diskio.c **** __weak DWORD get_fattime (void)
 155:Middlewares/Third_Party/FatFs/src/diskio.c **** {
 291              		.loc 1 155 1 is_stmt 1 view -0
 292              		.cfi_startproc
 293              		@ args = 0, pretend = 0, frame = 0
 294              		@ frame_needed = 0, uses_anonymous_args = 0
 295              		@ link register save eliminated.
 156:Middlewares/Third_Party/FatFs/src/diskio.c ****   return 0;
 296              		.loc 1 156 3 view .LVU58
 157:Middlewares/Third_Party/FatFs/src/diskio.c **** }
 297              		.loc 1 157 1 is_stmt 0 view .LVU59
 298 0000 0020     		movs	r0, #0
 299              		@ sp needed
 300 0002 7047     		bx	lr
 301              		.cfi_endproc
 302              	.LFE45:
 304              		.text
 305              	.Letext0:
 306              		.file 2 "Middlewares/Third_Party/FatFs/src/integer.h"
 307              		.file 3 "Middlewares/Third_Party/FatFs/src/diskio.h"
 308              		.file 4 "/home/ehrouda/gcc-arm-none-eabi-9-2019-q4-major/arm-none-eabi/include/machine/_default_ty
 309              		.file 5 "/home/ehrouda/gcc-arm-none-eabi-9-2019-q4-major/arm-none-eabi/include/sys/_stdint.h"
ARM GAS  /tmp/cc7eMp39.s 			page 9


 310              		.file 6 "Drivers/CMSIS/Device/ST/STM32F0xx/Include/system_stm32f0xx.h"
 311              		.file 7 "Drivers/STM32F0xx_HAL_Driver/Inc/stm32f0xx_hal.h"
 312              		.file 8 "Middlewares/Third_Party/FatFs/src/ff_gen_drv.h"
ARM GAS  /tmp/cc7eMp39.s 			page 10

