ARM GAS  /tmp/ccF7pZ5v.s 			page 1


   1              		.cpu cortex-m0
   2              		.eabi_attribute 20, 1
   3              		.eabi_attribute 21, 1
   4              		.eabi_attribute 23, 3
   5              		.eabi_attribute 24, 1
   6              		.eabi_attribute 25, 1
   7              		.eabi_attribute 26, 1
   8              		.eabi_attribute 30, 1
   9              		.eabi_attribute 34, 0
  10              		.eabi_attribute 18, 4
  11              		.file	"user_diskio.c"
  12              		.text
  13              	.Ltext0:
  14              		.cfi_sections	.debug_frame
  15              		.section	.text.USER_initialize,"ax",%progbits
  16              		.align	1
  17              		.global	USER_initialize
  18              		.arch armv6s-m
  19              		.syntax unified
  20              		.code	16
  21              		.thumb_func
  22              		.fpu softvfp
  24              	USER_initialize:
  25              	.LVL0:
  26              	.LFB40:
  27              		.file 1 "Src/user_diskio.c"
   1:Src/user_diskio.c **** /* USER CODE BEGIN Header */
   2:Src/user_diskio.c **** /**
   3:Src/user_diskio.c ****  ******************************************************************************
   4:Src/user_diskio.c ****   * @file    user_diskio.c
   5:Src/user_diskio.c ****   * @brief   This file includes a diskio driver skeleton to be completed by the user.
   6:Src/user_diskio.c ****   ******************************************************************************
   7:Src/user_diskio.c ****   * @attention
   8:Src/user_diskio.c ****   *
   9:Src/user_diskio.c ****   * <h2><center>&copy; Copyright (c) 2020 STMicroelectronics.
  10:Src/user_diskio.c ****   * All rights reserved.</center></h2>
  11:Src/user_diskio.c ****   *
  12:Src/user_diskio.c ****   * This software component is licensed by ST under Ultimate Liberty license
  13:Src/user_diskio.c ****   * SLA0044, the "License"; You may not use this file except in compliance with
  14:Src/user_diskio.c ****   * the License. You may obtain a copy of the License at:
  15:Src/user_diskio.c ****   *                             www.st.com/SLA0044
  16:Src/user_diskio.c ****   *
  17:Src/user_diskio.c ****   ******************************************************************************
  18:Src/user_diskio.c ****   */
  19:Src/user_diskio.c ****  /* USER CODE END Header */
  20:Src/user_diskio.c **** 
  21:Src/user_diskio.c **** #ifdef USE_OBSOLETE_USER_CODE_SECTION_0
  22:Src/user_diskio.c **** /* 
  23:Src/user_diskio.c ****  * Warning: the user section 0 is no more in use (starting from CubeMx version 4.16.0)
  24:Src/user_diskio.c ****  * To be suppressed in the future. 
  25:Src/user_diskio.c ****  * Kept to ensure backward compatibility with previous CubeMx versions when 
  26:Src/user_diskio.c ****  * migrating projects. 
  27:Src/user_diskio.c ****  * User code previously added there should be copied in the new user sections before 
  28:Src/user_diskio.c ****  * the section contents can be deleted.
  29:Src/user_diskio.c ****  */
  30:Src/user_diskio.c **** /* USER CODE BEGIN 0 */
  31:Src/user_diskio.c **** /* USER CODE END 0 */
ARM GAS  /tmp/ccF7pZ5v.s 			page 2


  32:Src/user_diskio.c **** #endif
  33:Src/user_diskio.c **** 
  34:Src/user_diskio.c **** /* USER CODE BEGIN DECL */
  35:Src/user_diskio.c **** 
  36:Src/user_diskio.c **** /* Includes ------------------------------------------------------------------*/
  37:Src/user_diskio.c **** #include <string.h>
  38:Src/user_diskio.c **** #include "ff_gen_drv.h"
  39:Src/user_diskio.c **** 
  40:Src/user_diskio.c **** /* Private typedef -----------------------------------------------------------*/
  41:Src/user_diskio.c **** /* Private define ------------------------------------------------------------*/
  42:Src/user_diskio.c **** 
  43:Src/user_diskio.c **** /* Private variables ---------------------------------------------------------*/
  44:Src/user_diskio.c **** /* Disk status */
  45:Src/user_diskio.c **** static volatile DSTATUS Stat = STA_NOINIT;
  46:Src/user_diskio.c **** 
  47:Src/user_diskio.c **** /* USER CODE END DECL */
  48:Src/user_diskio.c **** 
  49:Src/user_diskio.c **** /* Private function prototypes -----------------------------------------------*/
  50:Src/user_diskio.c **** DSTATUS USER_initialize (BYTE pdrv);
  51:Src/user_diskio.c **** DSTATUS USER_status (BYTE pdrv);
  52:Src/user_diskio.c **** DRESULT USER_read (BYTE pdrv, BYTE *buff, DWORD sector, UINT count);
  53:Src/user_diskio.c **** #if _USE_WRITE == 1
  54:Src/user_diskio.c ****   DRESULT USER_write (BYTE pdrv, const BYTE *buff, DWORD sector, UINT count);  
  55:Src/user_diskio.c **** #endif /* _USE_WRITE == 1 */
  56:Src/user_diskio.c **** #if _USE_IOCTL == 1
  57:Src/user_diskio.c ****   DRESULT USER_ioctl (BYTE pdrv, BYTE cmd, void *buff);
  58:Src/user_diskio.c **** #endif /* _USE_IOCTL == 1 */
  59:Src/user_diskio.c **** 
  60:Src/user_diskio.c **** Diskio_drvTypeDef  USER_Driver =
  61:Src/user_diskio.c **** {
  62:Src/user_diskio.c ****   USER_initialize,
  63:Src/user_diskio.c ****   USER_status,
  64:Src/user_diskio.c ****   USER_read, 
  65:Src/user_diskio.c **** #if  _USE_WRITE
  66:Src/user_diskio.c ****   USER_write,
  67:Src/user_diskio.c **** #endif  /* _USE_WRITE == 1 */  
  68:Src/user_diskio.c **** #if  _USE_IOCTL == 1
  69:Src/user_diskio.c ****   USER_ioctl,
  70:Src/user_diskio.c **** #endif /* _USE_IOCTL == 1 */
  71:Src/user_diskio.c **** };
  72:Src/user_diskio.c **** 
  73:Src/user_diskio.c **** /* Private functions ---------------------------------------------------------*/
  74:Src/user_diskio.c **** 
  75:Src/user_diskio.c **** /**
  76:Src/user_diskio.c ****   * @brief  Initializes a Drive
  77:Src/user_diskio.c ****   * @param  pdrv: Physical drive number (0..)
  78:Src/user_diskio.c ****   * @retval DSTATUS: Operation status
  79:Src/user_diskio.c ****   */
  80:Src/user_diskio.c **** DSTATUS USER_initialize (
  81:Src/user_diskio.c **** 	BYTE pdrv           /* Physical drive nmuber to identify the drive */
  82:Src/user_diskio.c **** )
  83:Src/user_diskio.c **** {
  28              		.loc 1 83 1 view -0
  29              		.cfi_startproc
  30              		@ args = 0, pretend = 0, frame = 0
  31              		@ frame_needed = 0, uses_anonymous_args = 0
  32              		@ link register save eliminated.
ARM GAS  /tmp/ccF7pZ5v.s 			page 3


  84:Src/user_diskio.c ****   /* USER CODE BEGIN INIT */
  85:Src/user_diskio.c ****     Stat = STA_NOINIT;
  33              		.loc 1 85 5 view .LVU1
  34              		.loc 1 85 10 is_stmt 0 view .LVU2
  35 0000 024B     		ldr	r3, .L2
  36 0002 0122     		movs	r2, #1
  37 0004 1A70     		strb	r2, [r3]
  86:Src/user_diskio.c ****     return Stat;
  38              		.loc 1 86 5 is_stmt 1 view .LVU3
  39              		.loc 1 86 12 is_stmt 0 view .LVU4
  40 0006 1878     		ldrb	r0, [r3]
  41              	.LVL1:
  42              		.loc 1 86 12 view .LVU5
  43 0008 C0B2     		uxtb	r0, r0
  87:Src/user_diskio.c ****   /* USER CODE END INIT */
  88:Src/user_diskio.c **** }
  44              		.loc 1 88 1 view .LVU6
  45              		@ sp needed
  46 000a 7047     		bx	lr
  47              	.L3:
  48              		.align	2
  49              	.L2:
  50 000c 00000000 		.word	.LANCHOR0
  51              		.cfi_endproc
  52              	.LFE40:
  54              		.section	.text.USER_status,"ax",%progbits
  55              		.align	1
  56              		.global	USER_status
  57              		.syntax unified
  58              		.code	16
  59              		.thumb_func
  60              		.fpu softvfp
  62              	USER_status:
  63              	.LVL2:
  64              	.LFB41:
  89:Src/user_diskio.c ****  
  90:Src/user_diskio.c **** /**
  91:Src/user_diskio.c ****   * @brief  Gets Disk Status 
  92:Src/user_diskio.c ****   * @param  pdrv: Physical drive number (0..)
  93:Src/user_diskio.c ****   * @retval DSTATUS: Operation status
  94:Src/user_diskio.c ****   */
  95:Src/user_diskio.c **** DSTATUS USER_status (
  96:Src/user_diskio.c **** 	BYTE pdrv       /* Physical drive number to identify the drive */
  97:Src/user_diskio.c **** )
  98:Src/user_diskio.c **** {
  65              		.loc 1 98 1 is_stmt 1 view -0
  66              		.cfi_startproc
  67              		@ args = 0, pretend = 0, frame = 0
  68              		@ frame_needed = 0, uses_anonymous_args = 0
  69              		@ link register save eliminated.
  99:Src/user_diskio.c ****   /* USER CODE BEGIN STATUS */
 100:Src/user_diskio.c ****     Stat = STA_NOINIT;
  70              		.loc 1 100 5 view .LVU8
  71              		.loc 1 100 10 is_stmt 0 view .LVU9
  72 0000 024B     		ldr	r3, .L5
  73 0002 0122     		movs	r2, #1
  74 0004 1A70     		strb	r2, [r3]
ARM GAS  /tmp/ccF7pZ5v.s 			page 4


 101:Src/user_diskio.c ****     return Stat;
  75              		.loc 1 101 5 is_stmt 1 view .LVU10
  76              		.loc 1 101 12 is_stmt 0 view .LVU11
  77 0006 1878     		ldrb	r0, [r3]
  78              	.LVL3:
  79              		.loc 1 101 12 view .LVU12
  80 0008 C0B2     		uxtb	r0, r0
 102:Src/user_diskio.c ****   /* USER CODE END STATUS */
 103:Src/user_diskio.c **** }
  81              		.loc 1 103 1 view .LVU13
  82              		@ sp needed
  83 000a 7047     		bx	lr
  84              	.L6:
  85              		.align	2
  86              	.L5:
  87 000c 00000000 		.word	.LANCHOR0
  88              		.cfi_endproc
  89              	.LFE41:
  91              		.section	.text.USER_read,"ax",%progbits
  92              		.align	1
  93              		.global	USER_read
  94              		.syntax unified
  95              		.code	16
  96              		.thumb_func
  97              		.fpu softvfp
  99              	USER_read:
 100              	.LVL4:
 101              	.LFB42:
 104:Src/user_diskio.c **** 
 105:Src/user_diskio.c **** /**
 106:Src/user_diskio.c ****   * @brief  Reads Sector(s) 
 107:Src/user_diskio.c ****   * @param  pdrv: Physical drive number (0..)
 108:Src/user_diskio.c ****   * @param  *buff: Data buffer to store read data
 109:Src/user_diskio.c ****   * @param  sector: Sector address (LBA)
 110:Src/user_diskio.c ****   * @param  count: Number of sectors to read (1..128)
 111:Src/user_diskio.c ****   * @retval DRESULT: Operation result
 112:Src/user_diskio.c ****   */
 113:Src/user_diskio.c **** DRESULT USER_read (
 114:Src/user_diskio.c **** 	BYTE pdrv,      /* Physical drive nmuber to identify the drive */
 115:Src/user_diskio.c **** 	BYTE *buff,     /* Data buffer to store read data */
 116:Src/user_diskio.c **** 	DWORD sector,   /* Sector address in LBA */
 117:Src/user_diskio.c **** 	UINT count      /* Number of sectors to read */
 118:Src/user_diskio.c **** )
 119:Src/user_diskio.c **** {
 102              		.loc 1 119 1 is_stmt 1 view -0
 103              		.cfi_startproc
 104              		@ args = 0, pretend = 0, frame = 0
 105              		@ frame_needed = 0, uses_anonymous_args = 0
 106              		@ link register save eliminated.
 120:Src/user_diskio.c ****   /* USER CODE BEGIN READ */
 121:Src/user_diskio.c ****     return RES_OK;
 107              		.loc 1 121 5 view .LVU15
 122:Src/user_diskio.c ****   /* USER CODE END READ */
 123:Src/user_diskio.c **** }
 108              		.loc 1 123 1 is_stmt 0 view .LVU16
 109 0000 0020     		movs	r0, #0
 110              	.LVL5:
ARM GAS  /tmp/ccF7pZ5v.s 			page 5


 111              		.loc 1 123 1 view .LVU17
 112              		@ sp needed
 113 0002 7047     		bx	lr
 114              		.cfi_endproc
 115              	.LFE42:
 117              		.section	.text.USER_write,"ax",%progbits
 118              		.align	1
 119              		.global	USER_write
 120              		.syntax unified
 121              		.code	16
 122              		.thumb_func
 123              		.fpu softvfp
 125              	USER_write:
 126              	.LVL6:
 127              	.LFB43:
 124:Src/user_diskio.c **** 
 125:Src/user_diskio.c **** /**
 126:Src/user_diskio.c ****   * @brief  Writes Sector(s)  
 127:Src/user_diskio.c ****   * @param  pdrv: Physical drive number (0..)
 128:Src/user_diskio.c ****   * @param  *buff: Data to be written
 129:Src/user_diskio.c ****   * @param  sector: Sector address (LBA)
 130:Src/user_diskio.c ****   * @param  count: Number of sectors to write (1..128)
 131:Src/user_diskio.c ****   * @retval DRESULT: Operation result
 132:Src/user_diskio.c ****   */
 133:Src/user_diskio.c **** #if _USE_WRITE == 1
 134:Src/user_diskio.c **** DRESULT USER_write (
 135:Src/user_diskio.c **** 	BYTE pdrv,          /* Physical drive nmuber to identify the drive */
 136:Src/user_diskio.c **** 	const BYTE *buff,   /* Data to be written */
 137:Src/user_diskio.c **** 	DWORD sector,       /* Sector address in LBA */
 138:Src/user_diskio.c **** 	UINT count          /* Number of sectors to write */
 139:Src/user_diskio.c **** )
 140:Src/user_diskio.c **** { 
 128              		.loc 1 140 1 is_stmt 1 view -0
 129              		.cfi_startproc
 130              		@ args = 0, pretend = 0, frame = 0
 131              		@ frame_needed = 0, uses_anonymous_args = 0
 132              		@ link register save eliminated.
 141:Src/user_diskio.c ****   /* USER CODE BEGIN WRITE */
 142:Src/user_diskio.c ****   /* USER CODE HERE */
 143:Src/user_diskio.c ****     return RES_OK;
 133              		.loc 1 143 5 view .LVU19
 144:Src/user_diskio.c ****   /* USER CODE END WRITE */
 145:Src/user_diskio.c **** }
 134              		.loc 1 145 1 is_stmt 0 view .LVU20
 135 0000 0020     		movs	r0, #0
 136              	.LVL7:
 137              		.loc 1 145 1 view .LVU21
 138              		@ sp needed
 139 0002 7047     		bx	lr
 140              		.cfi_endproc
 141              	.LFE43:
 143              		.section	.text.USER_ioctl,"ax",%progbits
 144              		.align	1
 145              		.global	USER_ioctl
 146              		.syntax unified
 147              		.code	16
 148              		.thumb_func
ARM GAS  /tmp/ccF7pZ5v.s 			page 6


 149              		.fpu softvfp
 151              	USER_ioctl:
 152              	.LVL8:
 153              	.LFB44:
 146:Src/user_diskio.c **** #endif /* _USE_WRITE == 1 */
 147:Src/user_diskio.c **** 
 148:Src/user_diskio.c **** /**
 149:Src/user_diskio.c ****   * @brief  I/O control operation  
 150:Src/user_diskio.c ****   * @param  pdrv: Physical drive number (0..)
 151:Src/user_diskio.c ****   * @param  cmd: Control code
 152:Src/user_diskio.c ****   * @param  *buff: Buffer to send/receive control data
 153:Src/user_diskio.c ****   * @retval DRESULT: Operation result
 154:Src/user_diskio.c ****   */
 155:Src/user_diskio.c **** #if _USE_IOCTL == 1
 156:Src/user_diskio.c **** DRESULT USER_ioctl (
 157:Src/user_diskio.c **** 	BYTE pdrv,      /* Physical drive nmuber (0..) */
 158:Src/user_diskio.c **** 	BYTE cmd,       /* Control code */
 159:Src/user_diskio.c **** 	void *buff      /* Buffer to send/receive control data */
 160:Src/user_diskio.c **** )
 161:Src/user_diskio.c **** {
 154              		.loc 1 161 1 is_stmt 1 view -0
 155              		.cfi_startproc
 156              		@ args = 0, pretend = 0, frame = 0
 157              		@ frame_needed = 0, uses_anonymous_args = 0
 158              		@ link register save eliminated.
 162:Src/user_diskio.c ****   /* USER CODE BEGIN IOCTL */
 163:Src/user_diskio.c ****     DRESULT res = RES_ERROR;
 159              		.loc 1 163 5 view .LVU23
 164:Src/user_diskio.c ****     return res;
 160              		.loc 1 164 5 view .LVU24
 165:Src/user_diskio.c ****   /* USER CODE END IOCTL */
 166:Src/user_diskio.c **** }
 161              		.loc 1 166 1 is_stmt 0 view .LVU25
 162 0000 0120     		movs	r0, #1
 163              	.LVL9:
 164              		.loc 1 166 1 view .LVU26
 165              		@ sp needed
 166 0002 7047     		bx	lr
 167              		.cfi_endproc
 168              	.LFE44:
 170              		.global	USER_Driver
 171              		.section	.data.Stat,"aw"
 172              		.set	.LANCHOR0,. + 0
 175              	Stat:
 176 0000 01       		.byte	1
 177              		.section	.data.USER_Driver,"aw"
 178              		.align	2
 181              	USER_Driver:
 182 0000 00000000 		.word	USER_initialize
 183 0004 00000000 		.word	USER_status
 184 0008 00000000 		.word	USER_read
 185 000c 00000000 		.word	USER_write
 186 0010 00000000 		.word	USER_ioctl
 187              		.text
 188              	.Letext0:
 189              		.file 2 "/home/ehrouda/gcc-arm-none-eabi-9-2019-q4-major/arm-none-eabi/include/machine/_default_ty
 190              		.file 3 "/home/ehrouda/gcc-arm-none-eabi-9-2019-q4-major/arm-none-eabi/include/sys/lock.h"
ARM GAS  /tmp/ccF7pZ5v.s 			page 7


 191              		.file 4 "/home/ehrouda/gcc-arm-none-eabi-9-2019-q4-major/arm-none-eabi/include/sys/_types.h"
 192              		.file 5 "/home/ehrouda/gcc-arm-none-eabi-9-2019-q4-major/lib/gcc/arm-none-eabi/9.2.1/include/stdde
 193              		.file 6 "/home/ehrouda/gcc-arm-none-eabi-9-2019-q4-major/arm-none-eabi/include/sys/reent.h"
 194              		.file 7 "Middlewares/Third_Party/FatFs/src/integer.h"
 195              		.file 8 "Middlewares/Third_Party/FatFs/src/diskio.h"
 196              		.file 9 "/home/ehrouda/gcc-arm-none-eabi-9-2019-q4-major/arm-none-eabi/include/sys/_stdint.h"
 197              		.file 10 "Drivers/CMSIS/Device/ST/STM32F0xx/Include/system_stm32f0xx.h"
 198              		.file 11 "Drivers/STM32F0xx_HAL_Driver/Inc/stm32f0xx_hal.h"
 199              		.file 12 "Middlewares/Third_Party/FatFs/src/ff_gen_drv.h"
ARM GAS  /tmp/ccF7pZ5v.s 			page 8

